target datalayout = "e-m:e-p270:32:32-p271:32:32-p272:64:64-i64:64-i128:128-f80:128-n8:16:32:64-S128"
target triple = "x86_64-pc-linux-gnu"

%class.V3GraphVertex = type { ptr, %class.V3ListLinks, %class.V3List, %class.V3List.0, double, i32, i32, %union.anon }
%class.V3ListLinks = type { ptr, ptr }
%class.V3List = type { ptr, ptr }
%class.V3List.0 = type { ptr, ptr }
%union.anon = type { ptr }
%class.V3ListLinks.2 = type { ptr, ptr }
%"class.V3List<V3GraphEdge, &V3GraphEdge::iLinks>::SimpleItertatorImpl.6" = type { ptr }
%"class.V3List<V3GraphEdge, &V3GraphEdge::oLinks>::SimpleItertatorImpl.7" = type { ptr }

; Function Attrs: alwaysinline mustprogress uwtable
define linkonce_odr dso_local noundef nonnull align 8 dereferenceable(16) ptr @_ZN6V3ListI11V3GraphEdgeXadL_ZNS0_6oLinksEvEES0_E7toLinksEPKS0_(ptr noundef %0) #8 comdat align 2 {
  %2 = alloca ptr, align 8
  store ptr %0, ptr %2, align 8, !tbaa !41
  %3 = load ptr, ptr %2, align 8, !tbaa !41
  %4 = getelementptr inbounds i8, ptr %3, i64 0
  br i1 false, label %5, label %9

5:                                                ; preds = %1
  %6 = load ptr, ptr %4, align 8, !tbaa !11
  %7 = getelementptr i8, ptr %6, i64 sub (i64 ptrtoint (ptr @_ZN11V3GraphEdge6oLinksEv to i64), i64 1), !nosanitize !65
  %8 = load ptr, ptr %7, align 8, !nosanitize !65
  br label %10

9:                                                ; preds = %1
  br label %10

10:                                               ; preds = %9, %5
  %11 = phi ptr [ %8, %5 ], [ @_ZN11V3GraphEdge6oLinksEv, %9 ]
  %12 = call noundef nonnull align 8 dereferenceable(16) ptr %11(ptr noundef nonnull align 8 dereferenceable(72) %4)
  ret ptr %12
}

; Function Attrs: alwaysinline mustprogress uwtable
define linkonce_odr dso_local noundef nonnull align 8 dereferenceable(16) ptr @_ZN6V3ListI11V3GraphEdgeXadL_ZNS0_6iLinksEvEES0_E7toLinksEPKS0_(ptr noundef %0) #8 comdat align 2 {
  %2 = alloca ptr, align 8
  store ptr %0, ptr %2, align 8, !tbaa !41
  %3 = load ptr, ptr %2, align 8, !tbaa !41
  %4 = getelementptr inbounds i8, ptr %3, i64 0
  br i1 false, label %5, label %9

5:                                                ; preds = %1
  %6 = load ptr, ptr %4, align 8, !tbaa !11
  %7 = getelementptr i8, ptr %6, i64 sub (i64 ptrtoint (ptr @_ZN11V3GraphEdge6iLinksEv to i64), i64 1), !nosanitize !65
  %8 = load ptr, ptr %7, align 8, !nosanitize !65
  br label %10

9:                                                ; preds = %1
  br label %10

10:                                               ; preds = %9, %5
  %11 = phi ptr [ %8, %5 ], [ @_ZN11V3GraphEdge6iLinksEv, %9 ]
  %12 = call noundef nonnull align 8 dereferenceable(16) ptr %11(ptr noundef nonnull align 8 dereferenceable(72) %4)
  ret ptr %12
}

; Function Attrs: alwaysinline mustprogress nounwind uwtable
define linkonce_odr dso_local void @_ZN6V3ListI11V3GraphEdgeXadL_ZNS0_6oLinksEvEES0_E8prefetchEPKS0_S3_(ptr noundef %0, ptr noundef %1) #7 comdat align 2 {
  %3 = alloca ptr, align 8
  %4 = alloca ptr, align 8
  store ptr %0, ptr %3, align 8, !tbaa !41
  store ptr %1, ptr %4, align 8, !tbaa !41
  br label %5

5:                                                ; preds = %2
  br label %6

6:                                                ; preds = %5
  %7 = load ptr, ptr %3, align 8, !tbaa !41
  %8 = icmp ne ptr %7, null
  br i1 %8, label %9, label %11

9:                                                ; preds = %6
  %10 = load ptr, ptr %3, align 8, !tbaa !41
  br label %13

11:                                               ; preds = %6
  %12 = load ptr, ptr %4, align 8, !tbaa !41
  br label %13

13:                                               ; preds = %11, %9
  %14 = phi ptr [ %10, %9 ], [ %12, %11 ]
  call void @llvm.prefetch.p0(ptr %14, i32 1, i32 3, i32 1)
  ret void
}

; Function Attrs: alwaysinline mustprogress uwtable
define linkonce_odr dso_local noundef ptr @_ZN6V3ListI11V3GraphEdgeXadL_ZNS0_6oLinksEvEES0_E19SimpleItertatorImplIKS0_Lb0EE4stepEPS0_(ptr noundef %0) #8 comdat align 2 {
  %2 = alloca ptr, align 8
  store ptr %0, ptr %2, align 8, !tbaa !41
  %3 = load ptr, ptr %2, align 8, !tbaa !41
  %4 = call noundef nonnull align 8 dereferenceable(16) ptr @_ZN6V3ListI11V3GraphEdgeXadL_ZNS0_6oLinksEvEES0_E7toLinksEPKS0_(ptr noundef %3)
  %5 = getelementptr inbounds nuw %class.V3ListLinks.2, ptr %4, i32 0, i32 0
  %6 = load ptr, ptr %5, align 8, !tbaa !90
  ret ptr %6
}

; Function Attrs: alwaysinline mustprogress nounwind uwtable
define linkonce_odr dso_local void @_ZN6V3ListI11V3GraphEdgeXadL_ZNS0_6oLinksEvEES0_E19SimpleItertatorImplIKS0_Lb0EEC2EPS0_(ptr noundef nonnull align 8 dereferenceable(8) %0, ptr noundef %1) unnamed_addr #7 comdat align 2 {
  %3 = alloca ptr, align 8
  %4 = alloca ptr, align 8
  store ptr %0, ptr %3, align 8, !tbaa !108
  store ptr %1, ptr %4, align 8, !tbaa !41
  %5 = load ptr, ptr %3, align 8
  %6 = getelementptr inbounds nuw %"class.V3List<V3GraphEdge, &V3GraphEdge::oLinks>::SimpleItertatorImpl.7", ptr %5, i32 0, i32 0
  %7 = load ptr, ptr %4, align 8, !tbaa !41
  store ptr %7, ptr %6, align 8, !tbaa !110
  ret void
}

; Function Attrs: alwaysinline mustprogress nounwind uwtable
define linkonce_odr dso_local void @_ZN6V3ListI11V3GraphEdgeXadL_ZNS0_6iLinksEvEES0_E8prefetchEPKS0_S3_(ptr noundef %0, ptr noundef %1) #7 comdat align 2 {
  %3 = alloca ptr, align 8
  %4 = alloca ptr, align 8
  store ptr %0, ptr %3, align 8, !tbaa !41
  store ptr %1, ptr %4, align 8, !tbaa !41
  br label %5

5:                                                ; preds = %2
  br label %6

6:                                                ; preds = %5
  %7 = load ptr, ptr %3, align 8, !tbaa !41
  %8 = icmp ne ptr %7, null
  br i1 %8, label %9, label %11

9:                                                ; preds = %6
  %10 = load ptr, ptr %3, align 8, !tbaa !41
  br label %13

11:                                               ; preds = %6
  %12 = load ptr, ptr %4, align 8, !tbaa !41
  br label %13

13:                                               ; preds = %11, %9
  %14 = phi ptr [ %10, %9 ], [ %12, %11 ]
  call void @llvm.prefetch.p0(ptr %14, i32 1, i32 3, i32 1)
  ret void
}

; Function Attrs: alwaysinline mustprogress uwtable
define linkonce_odr dso_local noundef ptr @_ZN6V3ListI11V3GraphEdgeXadL_ZNS0_6iLinksEvEES0_E19SimpleItertatorImplIKS0_Lb0EE4stepEPS0_(ptr noundef %0) #8 comdat align 2 {
  %2 = alloca ptr, align 8
  store ptr %0, ptr %2, align 8, !tbaa !41
  %3 = load ptr, ptr %2, align 8, !tbaa !41
  %4 = call noundef nonnull align 8 dereferenceable(16) ptr @_ZN6V3ListI11V3GraphEdgeXadL_ZNS0_6iLinksEvEES0_E7toLinksEPKS0_(ptr noundef %3)
  %5 = getelementptr inbounds nuw %class.V3ListLinks.2, ptr %4, i32 0, i32 0
  %6 = load ptr, ptr %5, align 8, !tbaa !90
  ret ptr %6
}

; Function Attrs: alwaysinline mustprogress nounwind uwtable
define linkonce_odr dso_local void @_ZN6V3ListI11V3GraphEdgeXadL_ZNS0_6iLinksEvEES0_E19SimpleItertatorImplIKS0_Lb0EEC2EPS0_(ptr noundef nonnull align 8 dereferenceable(8) %0, ptr noundef %1) unnamed_addr #7 comdat align 2 {
  %3 = alloca ptr, align 8
  %4 = alloca ptr, align 8
  store ptr %0, ptr %3, align 8, !tbaa !104
  store ptr %1, ptr %4, align 8, !tbaa !41
  %5 = load ptr, ptr %3, align 8
  %6 = getelementptr inbounds nuw %"class.V3List<V3GraphEdge, &V3GraphEdge::iLinks>::SimpleItertatorImpl.6", ptr %5, i32 0, i32 0
  %7 = load ptr, ptr %4, align 8, !tbaa !41
  store ptr %7, ptr %6, align 8, !tbaa !106
  ret void
}

; Function Attrs: alwaysinline mustprogress uwtable
define linkonce_odr dso_local noundef nonnull align 8 dereferenceable(8) ptr @_ZN6V3ListI11V3GraphEdgeXadL_ZNS0_6oLinksEvEES0_E19SimpleItertatorImplIKS0_Lb0EEppEv(ptr noundef nonnull align 8 dereferenceable(8) %0) #8 comdat align 2 {
  %2 = alloca ptr, align 8
  store ptr %0, ptr %2, align 8, !tbaa !108
  %3 = load ptr, ptr %2, align 8
  br label %4

4:                                                ; preds = %1
  br label %5

5:                                                ; preds = %4
  %6 = getelementptr inbounds nuw %"class.V3List<V3GraphEdge, &V3GraphEdge::oLinks>::SimpleItertatorImpl.7", ptr %3, i32 0, i32 0
  %7 = load ptr, ptr %6, align 8, !tbaa !110
  %8 = call noundef ptr @_ZN6V3ListI11V3GraphEdgeXadL_ZNS0_6oLinksEvEES0_E19SimpleItertatorImplIKS0_Lb0EE4stepEPS0_(ptr noundef %7)
  %9 = getelementptr inbounds nuw %"class.V3List<V3GraphEdge, &V3GraphEdge::oLinks>::SimpleItertatorImpl.7", ptr %3, i32 0, i32 0
  store ptr %8, ptr %9, align 8, !tbaa !110
  ret ptr %3
}

; Function Attrs: alwaysinline mustprogress uwtable
define linkonce_odr dso_local noundef nonnull align 8 dereferenceable(72) ptr @_ZNK6V3ListI11V3GraphEdgeXadL_ZNS0_6oLinksEvEES0_E19SimpleItertatorImplIKS0_Lb0EEdeEv(ptr noundef nonnull align 8 dereferenceable(8) %0) #8 comdat align 2 {
  %2 = alloca ptr, align 8
  store ptr %0, ptr %2, align 8, !tbaa !108
  %3 = load ptr, ptr %2, align 8
  br label %4

4:                                                ; preds = %1
  br label %5

5:                                                ; preds = %4
  %6 = getelementptr inbounds nuw %"class.V3List<V3GraphEdge, &V3GraphEdge::oLinks>::SimpleItertatorImpl.7", ptr %3, i32 0, i32 0
  %7 = load ptr, ptr %6, align 8, !tbaa !110
  %8 = call noundef ptr @_ZN6V3ListI11V3GraphEdgeXadL_ZNS0_6oLinksEvEES0_E19SimpleItertatorImplIKS0_Lb0EE4stepEPS0_(ptr noundef %7)
  %9 = getelementptr inbounds nuw %"class.V3List<V3GraphEdge, &V3GraphEdge::oLinks>::SimpleItertatorImpl.7", ptr %3, i32 0, i32 0
  %10 = load ptr, ptr %9, align 8, !tbaa !110
  call void @_ZN6V3ListI11V3GraphEdgeXadL_ZNS0_6oLinksEvEES0_E8prefetchEPKS0_S3_(ptr noundef %8, ptr noundef %10)
  %11 = getelementptr inbounds nuw %"class.V3List<V3GraphEdge, &V3GraphEdge::oLinks>::SimpleItertatorImpl.7", ptr %3, i32 0, i32 0
  %12 = load ptr, ptr %11, align 8, !tbaa !110
  ret ptr %12
}

; Function Attrs: alwaysinline mustprogress nounwind uwtable
define linkonce_odr dso_local noundef zeroext i1 @_ZNK6V3ListI11V3GraphEdgeXadL_ZNS0_6oLinksEvEES0_E19SimpleItertatorImplIKS0_Lb0EEneERKS4_(ptr noundef nonnull align 8 dereferenceable(8) %0, ptr noundef nonnull align 8 dereferenceable(8) %1) #7 comdat align 2 {
  %3 = alloca ptr, align 8
  %4 = alloca ptr, align 8
  store ptr %0, ptr %3, align 8, !tbaa !108
  store ptr %1, ptr %4, align 8, !tbaa !108
  %5 = load ptr, ptr %3, align 8
  %6 = getelementptr inbounds nuw %"class.V3List<V3GraphEdge, &V3GraphEdge::oLinks>::SimpleItertatorImpl.7", ptr %5, i32 0, i32 0
  %7 = load ptr, ptr %6, align 8, !tbaa !110
  %8 = load ptr, ptr %4, align 8, !tbaa !108
  %9 = getelementptr inbounds nuw %"class.V3List<V3GraphEdge, &V3GraphEdge::oLinks>::SimpleItertatorImpl.7", ptr %8, i32 0, i32 0
  %10 = load ptr, ptr %9, align 8, !tbaa !110
  %11 = icmp ne ptr %7, %10
  ret i1 %11
}

; Function Attrs: mustprogress uwtable
define linkonce_odr dso_local ptr @_ZNK6V3ListI11V3GraphEdgeXadL_ZNS0_6oLinksEvEES0_E3endEv(ptr noundef nonnull align 8 dereferenceable(16) %0) #4 comdat align 2 {
  %2 = alloca %"class.V3List<V3GraphEdge, &V3GraphEdge::oLinks>::SimpleItertatorImpl.7", align 8
  %3 = alloca ptr, align 8
  store ptr %0, ptr %3, align 8, !tbaa !28
  call void @_ZN6V3ListI11V3GraphEdgeXadL_ZNS0_6oLinksEvEES0_E19SimpleItertatorImplIKS0_Lb0EEC2EPS0_(ptr noundef nonnull align 8 dereferenceable(8) %2, ptr noundef null)
  %4 = getelementptr inbounds nuw %"class.V3List<V3GraphEdge, &V3GraphEdge::oLinks>::SimpleItertatorImpl.7", ptr %2, i32 0, i32 0
  %5 = load ptr, ptr %4, align 8
  ret ptr %5
}

; Function Attrs: mustprogress uwtable
define linkonce_odr dso_local ptr @_ZNK6V3ListI11V3GraphEdgeXadL_ZNS0_6oLinksEvEES0_E5beginEv(ptr noundef nonnull align 8 dereferenceable(16) %0) #4 comdat align 2 {
  %2 = alloca %"class.V3List<V3GraphEdge, &V3GraphEdge::oLinks>::SimpleItertatorImpl.7", align 8
  %3 = alloca ptr, align 8
  store ptr %0, ptr %3, align 8, !tbaa !28
  %4 = load ptr, ptr %3, align 8
  %5 = getelementptr inbounds nuw %class.V3List, ptr %4, i32 0, i32 0
  %6 = load ptr, ptr %5, align 8, !tbaa !30
  call void @_ZN6V3ListI11V3GraphEdgeXadL_ZNS0_6oLinksEvEES0_E19SimpleItertatorImplIKS0_Lb0EEC2EPS0_(ptr noundef nonnull align 8 dereferenceable(8) %2, ptr noundef %6)
  %7 = getelementptr inbounds nuw %"class.V3List<V3GraphEdge, &V3GraphEdge::oLinks>::SimpleItertatorImpl.7", ptr %2, i32 0, i32 0
  %8 = load ptr, ptr %7, align 8
  ret ptr %8
}

; Function Attrs: mustprogress nounwind uwtable
define linkonce_odr dso_local noundef nonnull align 8 dereferenceable(16) ptr @_ZNK13V3GraphVertex8outEdgesEv(ptr noundef nonnull align 8 dereferenceable(80) %0) #5 comdat align 2 {
  %2 = alloca ptr, align 8
  store ptr %0, ptr %2, align 8, !tbaa !4
  %3 = load ptr, ptr %2, align 8
  %4 = getelementptr inbounds nuw %class.V3GraphVertex, ptr %3, i32 0, i32 2
  ret ptr %4
}

; Function Attrs: alwaysinline mustprogress uwtable
define linkonce_odr dso_local noundef nonnull align 8 dereferenceable(8) ptr @_ZN6V3ListI11V3GraphEdgeXadL_ZNS0_6iLinksEvEES0_E19SimpleItertatorImplIKS0_Lb0EEppEv(ptr noundef nonnull align 8 dereferenceable(8) %0) #8 comdat align 2 {
  %2 = alloca ptr, align 8
  store ptr %0, ptr %2, align 8, !tbaa !104
  %3 = load ptr, ptr %2, align 8
  br label %4

4:                                                ; preds = %1
  br label %5

5:                                                ; preds = %4
  %6 = getelementptr inbounds nuw %"class.V3List<V3GraphEdge, &V3GraphEdge::iLinks>::SimpleItertatorImpl.6", ptr %3, i32 0, i32 0
  %7 = load ptr, ptr %6, align 8, !tbaa !106
  %8 = call noundef ptr @_ZN6V3ListI11V3GraphEdgeXadL_ZNS0_6iLinksEvEES0_E19SimpleItertatorImplIKS0_Lb0EE4stepEPS0_(ptr noundef %7)
  %9 = getelementptr inbounds nuw %"class.V3List<V3GraphEdge, &V3GraphEdge::iLinks>::SimpleItertatorImpl.6", ptr %3, i32 0, i32 0
  store ptr %8, ptr %9, align 8, !tbaa !106
  ret ptr %3
}

; Function Attrs: alwaysinline mustprogress uwtable
define linkonce_odr dso_local noundef nonnull align 8 dereferenceable(72) ptr @_ZNK6V3ListI11V3GraphEdgeXadL_ZNS0_6iLinksEvEES0_E19SimpleItertatorImplIKS0_Lb0EEdeEv(ptr noundef nonnull align 8 dereferenceable(8) %0) #8 comdat align 2 {
  %2 = alloca ptr, align 8
  store ptr %0, ptr %2, align 8, !tbaa !104
  %3 = load ptr, ptr %2, align 8
  br label %4

4:                                                ; preds = %1
  br label %5

5:                                                ; preds = %4
  %6 = getelementptr inbounds nuw %"class.V3List<V3GraphEdge, &V3GraphEdge::iLinks>::SimpleItertatorImpl.6", ptr %3, i32 0, i32 0
  %7 = load ptr, ptr %6, align 8, !tbaa !106
  %8 = call noundef ptr @_ZN6V3ListI11V3GraphEdgeXadL_ZNS0_6iLinksEvEES0_E19SimpleItertatorImplIKS0_Lb0EE4stepEPS0_(ptr noundef %7)
  %9 = getelementptr inbounds nuw %"class.V3List<V3GraphEdge, &V3GraphEdge::iLinks>::SimpleItertatorImpl.6", ptr %3, i32 0, i32 0
  %10 = load ptr, ptr %9, align 8, !tbaa !106
  call void @_ZN6V3ListI11V3GraphEdgeXadL_ZNS0_6iLinksEvEES0_E8prefetchEPKS0_S3_(ptr noundef %8, ptr noundef %10)
  %11 = getelementptr inbounds nuw %"class.V3List<V3GraphEdge, &V3GraphEdge::iLinks>::SimpleItertatorImpl.6", ptr %3, i32 0, i32 0
  %12 = load ptr, ptr %11, align 8, !tbaa !106
  ret ptr %12
}

; Function Attrs: alwaysinline mustprogress nounwind uwtable
define linkonce_odr dso_local noundef zeroext i1 @_ZNK6V3ListI11V3GraphEdgeXadL_ZNS0_6iLinksEvEES0_E19SimpleItertatorImplIKS0_Lb0EEneERKS4_(ptr noundef nonnull align 8 dereferenceable(8) %0, ptr noundef nonnull align 8 dereferenceable(8) %1) #7 comdat align 2 {
  %3 = alloca ptr, align 8
  %4 = alloca ptr, align 8
  store ptr %0, ptr %3, align 8, !tbaa !104
  store ptr %1, ptr %4, align 8, !tbaa !104
  %5 = load ptr, ptr %3, align 8
  %6 = getelementptr inbounds nuw %"class.V3List<V3GraphEdge, &V3GraphEdge::iLinks>::SimpleItertatorImpl.6", ptr %5, i32 0, i32 0
  %7 = load ptr, ptr %6, align 8, !tbaa !106
  %8 = load ptr, ptr %4, align 8, !tbaa !104
  %9 = getelementptr inbounds nuw %"class.V3List<V3GraphEdge, &V3GraphEdge::iLinks>::SimpleItertatorImpl.6", ptr %8, i32 0, i32 0
  %10 = load ptr, ptr %9, align 8, !tbaa !106
  %11 = icmp ne ptr %7, %10
  ret i1 %11
}

; Function Attrs: mustprogress uwtable
define linkonce_odr dso_local ptr @_ZNK6V3ListI11V3GraphEdgeXadL_ZNS0_6iLinksEvEES0_E3endEv(ptr noundef nonnull align 8 dereferenceable(16) %0) #4 comdat align 2 {
  %2 = alloca %"class.V3List<V3GraphEdge, &V3GraphEdge::iLinks>::SimpleItertatorImpl.6", align 8
  %3 = alloca ptr, align 8
  store ptr %0, ptr %3, align 8, !tbaa !32
  call void @_ZN6V3ListI11V3GraphEdgeXadL_ZNS0_6iLinksEvEES0_E19SimpleItertatorImplIKS0_Lb0EEC2EPS0_(ptr noundef nonnull align 8 dereferenceable(8) %2, ptr noundef null)
  %4 = getelementptr inbounds nuw %"class.V3List<V3GraphEdge, &V3GraphEdge::iLinks>::SimpleItertatorImpl.6", ptr %2, i32 0, i32 0
  %5 = load ptr, ptr %4, align 8
  ret ptr %5
}

; Function Attrs: mustprogress uwtable
define linkonce_odr dso_local ptr @_ZNK6V3ListI11V3GraphEdgeXadL_ZNS0_6iLinksEvEES0_E5beginEv(ptr noundef nonnull align 8 dereferenceable(16) %0) #4 comdat align 2 {
  %2 = alloca %"class.V3List<V3GraphEdge, &V3GraphEdge::iLinks>::SimpleItertatorImpl.6", align 8
  %3 = alloca ptr, align 8
  store ptr %0, ptr %3, align 8, !tbaa !32
  %4 = load ptr, ptr %3, align 8
  %5 = getelementptr inbounds nuw %class.V3List.0, ptr %4, i32 0, i32 0
  %6 = load ptr, ptr %5, align 8, !tbaa !34
  call void @_ZN6V3ListI11V3GraphEdgeXadL_ZNS0_6iLinksEvEES0_E19SimpleItertatorImplIKS0_Lb0EEC2EPS0_(ptr noundef nonnull align 8 dereferenceable(8) %2, ptr noundef %6)
  %7 = getelementptr inbounds nuw %"class.V3List<V3GraphEdge, &V3GraphEdge::iLinks>::SimpleItertatorImpl.6", ptr %2, i32 0, i32 0
  %8 = load ptr, ptr %7, align 8
  ret ptr %8
}

; Function Attrs: mustprogress nounwind uwtable
define linkonce_odr dso_local noundef nonnull align 8 dereferenceable(16) ptr @_ZNK13V3GraphVertex7inEdgesEv(ptr noundef nonnull align 8 dereferenceable(80) %0) #5 comdat align 2 {
  %2 = alloca ptr, align 8
  store ptr %0, ptr %2, align 8, !tbaa !4
  %3 = load ptr, ptr %2, align 8
  %4 = getelementptr inbounds nuw %class.V3GraphVertex, ptr %3, i32 0, i32 3
  ret ptr %4
}

; Function Attrs: mustprogress uwtable
define dso_local void @_ZNK7V3Graph9dumpEdgesERSoRK13V3GraphVertex(ptr noundef nonnull align 8 dereferenceable(24) %0, ptr noundef nonnull align 8 dereferenceable(8) %1, ptr noundef nonnull align 8 dereferenceable(80) %2) #4 align 2 {
  %4 = alloca ptr, align 8
  %5 = alloca ptr, align 8
  %6 = alloca ptr, align 8
  %7 = alloca ptr, align 8
  %8 = alloca %"class.V3List<V3GraphEdge, &V3GraphEdge::iLinks>::SimpleItertatorImpl.6", align 8
  %9 = alloca %"class.V3List<V3GraphEdge, &V3GraphEdge::iLinks>::SimpleItertatorImpl.6", align 8
  %10 = alloca ptr, align 8
  %11 = alloca ptr, align 8
  %12 = alloca %"class.V3List<V3GraphEdge, &V3GraphEdge::oLinks>::SimpleItertatorImpl.7", align 8
  %13 = alloca %"class.V3List<V3GraphEdge, &V3GraphEdge::oLinks>::SimpleItertatorImpl.7", align 8
  %14 = alloca ptr, align 8
  store ptr %0, ptr %4, align 8, !tbaa !9
  store ptr %1, ptr %5, align 8, !tbaa !73
  store ptr %2, ptr %6, align 8, !tbaa !4
  %15 = load ptr, ptr %4, align 8
  call void @llvm.lifetime.start.p0(i64 8, ptr %7) #3
  %16 = load ptr, ptr %6, align 8, !tbaa !4
  %17 = call noundef nonnull align 8 dereferenceable(16) ptr @_ZNK13V3GraphVertex7inEdgesEv(ptr noundef nonnull align 8 dereferenceable(80) %16)
  store ptr %17, ptr %7, align 8, !tbaa !32
  call void @llvm.lifetime.start.p0(i64 8, ptr %8) #3
  %18 = load ptr, ptr %7, align 8, !tbaa !32
  %19 = call ptr @_ZNK6V3ListI11V3GraphEdgeXadL_ZNS0_6iLinksEvEES0_E5beginEv(ptr noundef nonnull align 8 dereferenceable(16) %18)
  %20 = getelementptr inbounds nuw %"class.V3List<V3GraphEdge, &V3GraphEdge::iLinks>::SimpleItertatorImpl.6", ptr %8, i32 0, i32 0
  store ptr %19, ptr %20, align 8
  call void @llvm.lifetime.start.p0(i64 8, ptr %9) #3
  %21 = load ptr, ptr %7, align 8, !tbaa !32
  %22 = call ptr @_ZNK6V3ListI11V3GraphEdgeXadL_ZNS0_6iLinksEvEES0_E3endEv(ptr noundef nonnull align 8 dereferenceable(16) %21)
  %23 = getelementptr inbounds nuw %"class.V3List<V3GraphEdge, &V3GraphEdge::iLinks>::SimpleItertatorImpl.6", ptr %9, i32 0, i32 0
  store ptr %22, ptr %23, align 8
  br label %24

24:                                               ; preds = %32, %3
  %25 = call noundef zeroext i1 @_ZNK6V3ListI11V3GraphEdgeXadL_ZNS0_6iLinksEvEES0_E19SimpleItertatorImplIKS0_Lb0EEneERKS4_(ptr noundef nonnull align 8 dereferenceable(8) %8, ptr noundef nonnull align 8 dereferenceable(8) %9)
  br i1 %25, label %27, label %26

26:                                               ; preds = %24
  call void @llvm.lifetime.end.p0(i64 8, ptr %9) #3
  call void @llvm.lifetime.end.p0(i64 8, ptr %8) #3
  call void @llvm.lifetime.end.p0(i64 8, ptr %7) #3
  br label %34

27:                                               ; preds = %24
  call void @llvm.lifetime.start.p0(i64 8, ptr %10) #3
  %28 = call noundef nonnull align 8 dereferenceable(72) ptr @_ZNK6V3ListI11V3GraphEdgeXadL_ZNS0_6iLinksEvEES0_E19SimpleItertatorImplIKS0_Lb0EEdeEv(ptr noundef nonnull align 8 dereferenceable(8) %8)
  store ptr %28, ptr %10, align 8, !tbaa !41
  %29 = load ptr, ptr %5, align 8, !tbaa !73
  %30 = load ptr, ptr %6, align 8, !tbaa !4
  %31 = load ptr, ptr %10, align 8, !tbaa !41
  call void @_ZNK7V3Graph8dumpEdgeERSoRK13V3GraphVertexRK11V3GraphEdge(ptr noundef nonnull align 8 dereferenceable(24) %15, ptr noundef nonnull align 8 dereferenceable(8) %29, ptr noundef nonnull align 8 dereferenceable(80) %30, ptr noundef nonnull align 8 dereferenceable(72) %31)
  call void @llvm.lifetime.end.p0(i64 8, ptr %10) #3
  br label %32

32:                                               ; preds = %27
  %33 = call noundef nonnull align 8 dereferenceable(8) ptr @_ZN6V3ListI11V3GraphEdgeXadL_ZNS0_6iLinksEvEES0_E19SimpleItertatorImplIKS0_Lb0EEppEv(ptr noundef nonnull align 8 dereferenceable(8) %8)
  br label %24

34:                                               ; preds = %26
  call void @llvm.lifetime.start.p0(i64 8, ptr %11) #3
  %35 = load ptr, ptr %6, align 8, !tbaa !4
  %36 = call noundef nonnull align 8 dereferenceable(16) ptr @_ZNK13V3GraphVertex8outEdgesEv(ptr noundef nonnull align 8 dereferenceable(80) %35)
  store ptr %36, ptr %11, align 8, !tbaa !28
  call void @llvm.lifetime.start.p0(i64 8, ptr %12) #3
  %37 = load ptr, ptr %11, align 8, !tbaa !28
  %38 = call ptr @_ZNK6V3ListI11V3GraphEdgeXadL_ZNS0_6oLinksEvEES0_E5beginEv(ptr noundef nonnull align 8 dereferenceable(16) %37)
  %39 = getelementptr inbounds nuw %"class.V3List<V3GraphEdge, &V3GraphEdge::oLinks>::SimpleItertatorImpl.7", ptr %12, i32 0, i32 0
  store ptr %38, ptr %39, align 8
  call void @llvm.lifetime.start.p0(i64 8, ptr %13) #3
  %40 = load ptr, ptr %11, align 8, !tbaa !28
  %41 = call ptr @_ZNK6V3ListI11V3GraphEdgeXadL_ZNS0_6oLinksEvEES0_E3endEv(ptr noundef nonnull align 8 dereferenceable(16) %40)
  %42 = getelementptr inbounds nuw %"class.V3List<V3GraphEdge, &V3GraphEdge::oLinks>::SimpleItertatorImpl.7", ptr %13, i32 0, i32 0
  store ptr %41, ptr %42, align 8
  br label %43

43:                                               ; preds = %51, %34
  %44 = call noundef zeroext i1 @_ZNK6V3ListI11V3GraphEdgeXadL_ZNS0_6oLinksEvEES0_E19SimpleItertatorImplIKS0_Lb0EEneERKS4_(ptr noundef nonnull align 8 dereferenceable(8) %12, ptr noundef nonnull align 8 dereferenceable(8) %13)
  br i1 %44, label %46, label %45

45:                                               ; preds = %43
  call void @llvm.lifetime.end.p0(i64 8, ptr %13) #3
  call void @llvm.lifetime.end.p0(i64 8, ptr %12) #3
  call void @llvm.lifetime.end.p0(i64 8, ptr %11) #3
  br label %53

46:                                               ; preds = %43
  call void @llvm.lifetime.start.p0(i64 8, ptr %14) #3
  %47 = call noundef nonnull align 8 dereferenceable(72) ptr @_ZNK6V3ListI11V3GraphEdgeXadL_ZNS0_6oLinksEvEES0_E19SimpleItertatorImplIKS0_Lb0EEdeEv(ptr noundef nonnull align 8 dereferenceable(8) %12)
  store ptr %47, ptr %14, align 8, !tbaa !41
  %48 = load ptr, ptr %5, align 8, !tbaa !73
  %49 = load ptr, ptr %6, align 8, !tbaa !4
  %50 = load ptr, ptr %14, align 8, !tbaa !41
  call void @_ZNK7V3Graph8dumpEdgeERSoRK13V3GraphVertexRK11V3GraphEdge(ptr noundef nonnull align 8 dereferenceable(24) %15, ptr noundef nonnull align 8 dereferenceable(8) %48, ptr noundef nonnull align 8 dereferenceable(80) %49, ptr noundef nonnull align 8 dereferenceable(72) %50)
  call void @llvm.lifetime.end.p0(i64 8, ptr %14) #3
  br label %51

51:                                               ; preds = %46
  %52 = call noundef nonnull align 8 dereferenceable(8) ptr @_ZN6V3ListI11V3GraphEdgeXadL_ZNS0_6oLinksEvEES0_E19SimpleItertatorImplIKS0_Lb0EEppEv(ptr noundef nonnull align 8 dereferenceable(8) %12)
  br label %43

53:                                               ; preds = %45
  ret void
}