; Function Attrs: mustprogress uwtable
define dso_local void @_ZNK7V3Graph9dumpEdgesERSoRK13V3GraphVertex(ptr nonnull readnone align 8 captures(none) %0, ptr noundef nonnull align 8 dereferenceable(8) %1, ptr noundef nonnull align 8 captures(address) dereferenceable(80) %2) #4 align 2 {
  %4 = getelementptr inbounds nuw i8, ptr %2, i64 40
  %.sroa.020.026 = load ptr, ptr %4, align 8, !tbaa !37
  %.not27 = icmp eq ptr %.sroa.020.026, null
  br i1 %.not27, label %._crit_edge, label %.lr.ph

._crit_edge:                                      ; preds = %.lr.ph, %3
  %5 = getelementptr inbounds nuw i8, ptr %2, i64 24
  %.sroa.014.029 = load ptr, ptr %5, align 8, !tbaa !37
  %.not2530 = icmp eq ptr %.sroa.014.029, null
  br i1 %.not2530, label %._crit_edge34, label %.lr.ph33

.lr.ph:                                           ; preds = %3, %.lr.ph
  %.sroa.020.028 = phi ptr [ %.sroa.020.0, %.lr.ph ], [ %.sroa.020.026, %3 ]
  %6 = getelementptr inbounds nuw i8, ptr %.sroa.020.028, i64 24
  %7 = load ptr, ptr %6, align 8, !tbaa !31
  %.not.i = icmp eq ptr %7, null
  %8 = select i1 %.not.i, ptr %.sroa.020.028, ptr %7
  tail call void @llvm.prefetch.p0(ptr nonnull %8, i32 1, i32 3, i32 1)
  tail call void @_ZNK7V3Graph8dumpEdgeERSoRK13V3GraphVertexRK11V3GraphEdge(ptr nonnull align 8 poison, ptr noundef nonnull align 8 dereferenceable(8) %1, ptr noundef nonnull align 8 dereferenceable(80) %2, ptr noundef nonnull align 8 dereferenceable(72) %.sroa.020.028)
  %.sroa.020.0 = load ptr, ptr %6, align 8, !tbaa !37
  %.not = icmp eq ptr %.sroa.020.0, null
  br i1 %.not, label %._crit_edge, label %.lr.ph

._crit_edge34:                                    ; preds = %.lr.ph33, %._crit_edge
  ret void

.lr.ph33:                                         ; preds = %._crit_edge, %.lr.ph33
  %.sroa.014.031 = phi ptr [ %.sroa.014.0, %.lr.ph33 ], [ %.sroa.014.029, %._crit_edge ]
  %9 = getelementptr inbounds nuw i8, ptr %.sroa.014.031, i64 8
  %10 = load ptr, ptr %9, align 8, !tbaa !31
  %.not.i13 = icmp eq ptr %10, null
  %11 = select i1 %.not.i13, ptr %.sroa.014.031, ptr %10
  tail call void @llvm.prefetch.p0(ptr nonnull %11, i32 1, i32 3, i32 1)
  tail call void @_ZNK7V3Graph8dumpEdgeERSoRK13V3GraphVertexRK11V3GraphEdge(ptr nonnull align 8 poison, ptr noundef nonnull align 8 dereferenceable(8) %1, ptr noundef nonnull align 8 dereferenceable(80) %2, ptr noundef nonnull align 8 dereferenceable(72) %.sroa.014.031)
  %.sroa.014.0 = load ptr, ptr %9, align 8, !tbaa !37
  %.not25 = icmp eq ptr %.sroa.014.0, null
  br i1 %.not25, label %._crit_edge34, label %.lr.ph33
}